target datalayout = "e-m:e-p270:32:32-p271:32:32-p272:64:64-i64:64-i128:128-f80:128-n8:16:32:64-S128"
target triple = "x86_64-pc-linux-gnu"

%struct.SDL_EventWatchList = type { ptr, %struct.SDL_EventWatcher, ptr, i32, i8, i8 }
%struct.SDL_EventWatcher = type { ptr, ptr, i8 }

; Function Attrs: nounwind uwtable
define hidden zeroext i1 @SDL_AddEventWatchList(ptr noundef %0, ptr noundef %1, ptr noundef %2) #0 {
  %4 = alloca ptr, align 8
  %5 = alloca ptr, align 8
  %6 = alloca ptr, align 8
  %7 = alloca i8, align 1
  %8 = alloca ptr, align 8
  %9 = alloca ptr, align 8
  store ptr %0, ptr %4, align 8
  store ptr %1, ptr %5, align 8
  store ptr %2, ptr %6, align 8
  call void @llvm.lifetime.start.p0(i64 1, ptr %7) #6
  store i8 1, ptr %7, align 1
  %10 = load ptr, ptr %4, align 8
  %11 = getelementptr inbounds nuw %struct.SDL_EventWatchList, ptr %10, i32 0, i32 0
  %12 = load ptr, ptr %11, align 8
  call void @SDL_LockMutex_REAL(ptr noundef %12)
  call void @llvm.lifetime.start.p0(i64 8, ptr %8) #6
  %13 = load ptr, ptr %4, align 8
  %14 = getelementptr inbounds nuw %struct.SDL_EventWatchList, ptr %13, i32 0, i32 2
  %15 = load ptr, ptr %14, align 8
  %16 = load ptr, ptr %4, align 8
  %17 = getelementptr inbounds nuw %struct.SDL_EventWatchList, ptr %16, i32 0, i32 3
  %18 = load i32, ptr %17, align 8
  %19 = add nsw i32 %18, 1
  %20 = sext i32 %19 to i64
  %21 = mul i64 %20, 24
  %22 = call ptr @SDL_realloc_REAL(ptr noundef %15, i64 noundef %21) #7
  store ptr %22, ptr %8, align 8
  %23 = load ptr, ptr %8, align 8
  %24 = icmp ne ptr %23, null
  br i1 %24, label %25, label %49

25:                                               ; preds = %3
  call void @llvm.lifetime.start.p0(i64 8, ptr %9) #6
  %26 = load ptr, ptr %8, align 8
  %27 = load ptr, ptr %4, align 8
  %28 = getelementptr inbounds nuw %struct.SDL_EventWatchList, ptr %27, i32 0, i32 2
  store ptr %26, ptr %28, align 8
  %29 = load ptr, ptr %4, align 8
  %30 = getelementptr inbounds nuw %struct.SDL_EventWatchList, ptr %29, i32 0, i32 2
  %31 = load ptr, ptr %30, align 8
  %32 = load ptr, ptr %4, align 8
  %33 = getelementptr inbounds nuw %struct.SDL_EventWatchList, ptr %32, i32 0, i32 3
  %34 = load i32, ptr %33, align 8
  %35 = sext i32 %34 to i64
  %36 = getelementptr inbounds %struct.SDL_EventWatcher, ptr %31, i64 %35
  store ptr %36, ptr %9, align 8
  %37 = load ptr, ptr %5, align 8
  %38 = load ptr, ptr %9, align 8
  %39 = getelementptr inbounds nuw %struct.SDL_EventWatcher, ptr %38, i32 0, i32 0
  store ptr %37, ptr %39, align 8
  %40 = load ptr, ptr %6, align 8
  %41 = load ptr, ptr %9, align 8
  %42 = getelementptr inbounds nuw %struct.SDL_EventWatcher, ptr %41, i32 0, i32 1
  store ptr %40, ptr %42, align 8
  %43 = load ptr, ptr %9, align 8
  %44 = getelementptr inbounds nuw %struct.SDL_EventWatcher, ptr %43, i32 0, i32 2
  store i8 0, ptr %44, align 8
  %45 = load ptr, ptr %4, align 8
  %46 = getelementptr inbounds nuw %struct.SDL_EventWatchList, ptr %45, i32 0, i32 3
  %47 = load i32, ptr %46, align 8
  %48 = add nsw i32 %47, 1
  store i32 %48, ptr %46, align 8
  call void @llvm.lifetime.end.p0(i64 8, ptr %9) #6
  br label %50

49:                                               ; preds = %3
  store i8 0, ptr %7, align 1
  br label %50

50:                                               ; preds = %49, %25
  call void @llvm.lifetime.end.p0(i64 8, ptr %8) #6
  %51 = load ptr, ptr %4, align 8
  %52 = getelementptr inbounds nuw %struct.SDL_EventWatchList, ptr %51, i32 0, i32 0
  %53 = load ptr, ptr %52, align 8
  call void @SDL_UnlockMutex_REAL(ptr noundef %53)
  %54 = load i8, ptr %7, align 1, !range !3, !noundef !4
  %55 = trunc i8 %54 to i1
  call void @llvm.lifetime.end.p0(i64 1, ptr %7) #6
  ret i1 %55
}