; Function Attrs: nounwind uwtable
define hidden noundef zeroext i1 @SDL_AddEventWatchList(ptr noundef captures(none) %0, ptr noundef %1, ptr noundef %2) local_unnamed_addr #0 {
  %4 = load ptr, ptr %0, align 8
  tail call void @SDL_LockMutex_REAL(ptr noundef %4) #5
  %5 = getelementptr inbounds nuw i8, ptr %0, i64 32
  %6 = load ptr, ptr %5, align 8
  %7 = getelementptr inbounds nuw i8, ptr %0, i64 40
  %8 = load i32, ptr %7, align 8
  %9 = add nsw i32 %8, 1
  %10 = sext i32 %9 to i64
  %11 = mul nsw i64 %10, 24
  %12 = tail call ptr @SDL_realloc_REAL(ptr noundef %6, i64 noundef %11) #6
  %.not = icmp ne ptr %12, null
  br i1 %.not, label %13, label %21

13:                                               ; preds = %3
  store ptr %12, ptr %5, align 8
  %14 = load i32, ptr %7, align 8
  %15 = sext i32 %14 to i64
  %16 = getelementptr inbounds %struct.SDL_EventWatcher, ptr %12, i64 %15
  store ptr %1, ptr %16, align 8
  %17 = getelementptr inbounds nuw i8, ptr %16, i64 8
  store ptr %2, ptr %17, align 8
  %18 = getelementptr inbounds nuw i8, ptr %16, i64 16
  store i8 0, ptr %18, align 8
  %19 = load i32, ptr %7, align 8
  %20 = add nsw i32 %19, 1
  store i32 %20, ptr %7, align 8
  br label %21

21:                                               ; preds = %3, %13
  %22 = load ptr, ptr %0, align 8
  tail call void @SDL_UnlockMutex_REAL(ptr noundef %22) #5
  ret i1 %.not
}